target datalayout = "e-m:e-p270:32:32-p271:32:32-p272:64:64-i64:64-i128:128-f80:128-n8:16:32:64-S128"
target triple = "x86_64-pc-linux-gnu"

%struct.kbdiacr = type { i8, i8, i8 }
%struct.SDL_EVDEV_keyboard_state = type { i32, i8, i32, ptr, [9 x i8], i8, i32, ptr, i32, i8, i8, i8, i8, i8, [128 x i8], i32, ptr, ptr, ptr, ptr }
%struct.kbdiacrs = type { i32, [256 x %struct.kbdiacr] }

; Function Attrs: nounwind uwtable
define internal i32 @handle_diacr(ptr noundef %0, i32 noundef %1) #0 {
  %3 = alloca i32, align 4
  %4 = alloca ptr, align 8
  %5 = alloca i32, align 4
  %6 = alloca i32, align 4
  %7 = alloca i32, align 4
  %8 = alloca i32, align 4
  store ptr %0, ptr %4, align 8
  store i32 %1, ptr %5, align 4
  call void @llvm.lifetime.start.p0(i64 4, ptr %6) #7
  %9 = load ptr, ptr %4, align 8
  %10 = getelementptr inbounds nuw %struct.SDL_EVDEV_keyboard_state, ptr %9, i32 0, i32 8
  %11 = load i32, ptr %10, align 8
  store i32 %11, ptr %6, align 4
  call void @llvm.lifetime.start.p0(i64 4, ptr %7) #7
  %12 = load ptr, ptr %4, align 8
  %13 = getelementptr inbounds nuw %struct.SDL_EVDEV_keyboard_state, ptr %12, i32 0, i32 8
  store i32 0, ptr %13, align 8
  %14 = load ptr, ptr %4, align 8
  %15 = getelementptr inbounds nuw %struct.SDL_EVDEV_keyboard_state, ptr %14, i32 0, i32 0
  %16 = load i32, ptr %15, align 8
  %17 = icmp sge i32 %16, 0
  br i1 %17, label %18, label %29

18:                                               ; preds = %2
  %19 = load ptr, ptr %4, align 8
  %20 = getelementptr inbounds nuw %struct.SDL_EVDEV_keyboard_state, ptr %19, i32 0, i32 0
  %21 = load i32, ptr %20, align 8
  %22 = load ptr, ptr %4, align 8
  %23 = getelementptr inbounds nuw %struct.SDL_EVDEV_keyboard_state, ptr %22, i32 0, i32 7
  %24 = load ptr, ptr %23, align 8
  %25 = call i32 (i32, i64, ...) @ioctl(i32 noundef %21, i64 noundef 19274, ptr noundef %24) #7
  %26 = icmp slt i32 %25, 0
  br i1 %26, label %27, label %28

27:                                               ; preds = %18
  br label %28

28:                                               ; preds = %27, %18
  br label %29

29:                                               ; preds = %28, %2
  store i32 0, ptr %7, align 4
  br label %30

30:                                               ; preds = %76, %29
  %31 = load i32, ptr %7, align 4
  %32 = load ptr, ptr %4, align 8
  %33 = getelementptr inbounds nuw %struct.SDL_EVDEV_keyboard_state, ptr %32, i32 0, i32 7
  %34 = load ptr, ptr %33, align 8
  %35 = getelementptr inbounds nuw %struct.kbdiacrs, ptr %34, i32 0, i32 0
  %36 = load i32, ptr %35, align 4
  %37 = icmp ult i32 %31, %36
  br i1 %37, label %38, label %79

38:                                               ; preds = %30
  %39 = load ptr, ptr %4, align 8
  %40 = getelementptr inbounds nuw %struct.SDL_EVDEV_keyboard_state, ptr %39, i32 0, i32 7
  %41 = load ptr, ptr %40, align 8
  %42 = getelementptr inbounds nuw %struct.kbdiacrs, ptr %41, i32 0, i32 1
  %43 = load i32, ptr %7, align 4
  %44 = zext i32 %43 to i64
  %45 = getelementptr inbounds nuw [256 x %struct.kbdiacr], ptr %42, i64 0, i64 %44
  %46 = getelementptr inbounds nuw %struct.kbdiacr, ptr %45, i32 0, i32 0
  %47 = load i8, ptr %46, align 1
  %48 = zext i8 %47 to i32
  %49 = load i32, ptr %6, align 4
  %50 = icmp eq i32 %48, %49
  br i1 %50, label %51, label %75

51:                                               ; preds = %38
  %52 = load ptr, ptr %4, align 8
  %53 = getelementptr inbounds nuw %struct.SDL_EVDEV_keyboard_state, ptr %52, i32 0, i32 7
  %54 = load ptr, ptr %53, align 8
  %55 = getelementptr inbounds nuw %struct.kbdiacrs, ptr %54, i32 0, i32 1
  %56 = load i32, ptr %7, align 4
  %57 = zext i32 %56 to i64
  %58 = getelementptr inbounds nuw [256 x %struct.kbdiacr], ptr %55, i64 0, i64 %57
  %59 = getelementptr inbounds nuw %struct.kbdiacr, ptr %58, i32 0, i32 1
  %60 = load i8, ptr %59, align 1
  %61 = zext i8 %60 to i32
  %62 = load i32, ptr %5, align 4
  %63 = icmp eq i32 %61, %62
  br i1 %63, label %64, label %75

64:                                               ; preds = %51
  %65 = load ptr, ptr %4, align 8
  %66 = getelementptr inbounds nuw %struct.SDL_EVDEV_keyboard_state, ptr %65, i32 0, i32 7
  %67 = load ptr, ptr %66, align 8
  %68 = getelementptr inbounds nuw %struct.kbdiacrs, ptr %67, i32 0, i32 1
  %69 = load i32, ptr %7, align 4
  %70 = zext i32 %69 to i64
  %71 = getelementptr inbounds nuw [256 x %struct.kbdiacr], ptr %68, i64 0, i64 %70
  %72 = getelementptr inbounds nuw %struct.kbdiacr, ptr %71, i32 0, i32 2
  %73 = load i8, ptr %72, align 1
  %74 = zext i8 %73 to i32
  store i32 %74, ptr %3, align 4
  store i32 1, ptr %8, align 4
  br label %92

75:                                               ; preds = %51, %38
  br label %76

76:                                               ; preds = %75
  %77 = load i32, ptr %7, align 4
  %78 = add i32 %77, 1
  store i32 %78, ptr %7, align 4
  br label %30, !llvm.loop !10

79:                                               ; preds = %30
  %80 = load i32, ptr %5, align 4
  %81 = icmp eq i32 %80, 32
  br i1 %81, label %86, label %82

82:                                               ; preds = %79
  %83 = load i32, ptr %5, align 4
  %84 = load i32, ptr %6, align 4
  %85 = icmp eq i32 %83, %84
  br i1 %85, label %86, label %88

86:                                               ; preds = %82, %79
  %87 = load i32, ptr %6, align 4
  store i32 %87, ptr %3, align 4
  store i32 1, ptr %8, align 4
  br label %92

88:                                               ; preds = %82
  %89 = load ptr, ptr %4, align 8
  %90 = load i32, ptr %6, align 4
  call void @put_utf8(ptr noundef %89, i32 noundef %90)
  %91 = load i32, ptr %5, align 4
  store i32 %91, ptr %3, align 4
  store i32 1, ptr %8, align 4
  br label %92

92:                                               ; preds = %88, %86, %64
  call void @llvm.lifetime.end.p0(i64 4, ptr %7) #7
  call void @llvm.lifetime.end.p0(i64 4, ptr %6) #7
  %93 = load i32, ptr %3, align 4
  ret i32 %93
}

; Function Attrs: nounwind uwtable
define internal void @k_deadunicode(ptr noundef %0, i32 noundef %1, i8 noundef signext %2) #0 {
  %4 = alloca ptr, align 8
  %5 = alloca i32, align 4
  %6 = alloca i8, align 1
  store ptr %0, ptr %4, align 8
  store i32 %1, ptr %5, align 4
  store i8 %2, ptr %6, align 1
  %7 = load i8, ptr %6, align 1
  %8 = icmp ne i8 %7, 0
  br i1 %8, label %9, label %10

9:                                                ; preds = %3
  br label %25

10:                                               ; preds = %3
  %11 = load ptr, ptr %4, align 8
  %12 = getelementptr inbounds nuw %struct.SDL_EVDEV_keyboard_state, ptr %11, i32 0, i32 8
  %13 = load i32, ptr %12, align 8
  %14 = icmp ne i32 %13, 0
  br i1 %14, label %15, label %19

15:                                               ; preds = %10
  %16 = load ptr, ptr %4, align 8
  %17 = load i32, ptr %5, align 4
  %18 = call i32 @handle_diacr(ptr noundef %16, i32 noundef %17)
  br label %21

19:                                               ; preds = %10
  %20 = load i32, ptr %5, align 4
  br label %21

21:                                               ; preds = %19, %15
  %22 = phi i32 [ %18, %15 ], [ %20, %19 ]
  %23 = load ptr, ptr %4, align 8
  %24 = getelementptr inbounds nuw %struct.SDL_EVDEV_keyboard_state, ptr %23, i32 0, i32 8
  store i32 %22, ptr %24, align 8
  br label %25

25:                                               ; preds = %21, %9
  ret void
}

; Function Attrs: nounwind uwtable
define internal void @k_dead2(ptr noundef %0, i8 noundef zeroext %1, i8 noundef signext %2) #0 {
  %4 = alloca ptr, align 8
  %5 = alloca i8, align 1
  %6 = alloca i8, align 1
  store ptr %0, ptr %4, align 8
  store i8 %1, ptr %5, align 1
  store i8 %2, ptr %6, align 1
  %7 = load ptr, ptr %4, align 8
  %8 = load i8, ptr %5, align 1
  %9 = zext i8 %8 to i32
  %10 = load i8, ptr %6, align 1
  call void @k_deadunicode(ptr noundef %7, i32 noundef %9, i8 noundef signext %10)
  ret void
}