; Function Attrs: nounwind uwtable
define internal void @k_dead2(ptr noundef captures(none) %0, i8 noundef zeroext %1, i8 noundef signext %2) #0 {
  %4 = zext i8 %1 to i32
  %.not.i = icmp eq i8 %2, 0
  br i1 %.not.i, label %5, label %k_deadunicode.exit

5:                                                ; preds = %3
  %6 = getelementptr inbounds nuw i8, ptr %0, i64 48
  %7 = load i32, ptr %6, align 8
  %.not5.i = icmp eq i32 %7, 0
  br i1 %.not5.i, label %handle_diacr.exit.i, label %8

8:                                                ; preds = %5
  store i32 0, ptr %6, align 8
  %9 = load i32, ptr %0, align 8
  %10 = icmp sgt i32 %9, -1
  br i1 %10, label %11, label %15

11:                                               ; preds = %8
  %12 = getelementptr inbounds nuw i8, ptr %0, i64 40
  %13 = load ptr, ptr %12, align 8
  %14 = tail call i32 (i32, i64, ...) @ioctl(i32 noundef %9, i64 noundef 19274, ptr noundef %13) #12
  br label %15

15:                                               ; preds = %11, %8
  %16 = getelementptr inbounds nuw i8, ptr %0, i64 40
  %17 = load ptr, ptr %16, align 8
  %18 = load i32, ptr %17, align 4
  %.not.i.i = icmp eq i32 %18, 0
  br i1 %.not.i.i, label %._crit_edge.i.i, label %.lr.ph.i.i

.lr.ph.i.i:                                       ; preds = %15
  %19 = getelementptr inbounds nuw i8, ptr %17, i64 4
  %wide.trip.count.i.i = zext i32 %18 to i64
  br label %20

20:                                               ; preds = %33, %.lr.ph.i.i
  %indvars.iv.i.i = phi i64 [ 0, %.lr.ph.i.i ], [ %indvars.iv.next.i.i, %33 ]
  %21 = getelementptr inbounds nuw [256 x %struct.kbdiacr], ptr %19, i64 0, i64 %indvars.iv.i.i
  %22 = load i8, ptr %21, align 1
  %23 = zext i8 %22 to i32
  %24 = icmp eq i32 %7, %23
  br i1 %24, label %25, label %33

25:                                               ; preds = %20
  %26 = getelementptr inbounds nuw i8, ptr %21, i64 1
  %27 = load i8, ptr %26, align 1
  %28 = icmp eq i8 %1, %27
  br i1 %28, label %29, label %33

29:                                               ; preds = %25
  %30 = getelementptr inbounds nuw i8, ptr %21, i64 2
  %31 = load i8, ptr %30, align 1
  %32 = zext i8 %31 to i32
  br label %handle_diacr.exit.i

33:                                               ; preds = %25, %20
  %indvars.iv.next.i.i = add nuw nsw i64 %indvars.iv.i.i, 1
  %exitcond.not.i.i = icmp eq i64 %indvars.iv.next.i.i, %wide.trip.count.i.i
  br i1 %exitcond.not.i.i, label %._crit_edge.i.i, label %20, !llvm.loop !10

._crit_edge.i.i:                                  ; preds = %33, %15
  %34 = icmp eq i8 %1, 32
  %35 = icmp eq i32 %7, %4
  %or.cond.i.i = or i1 %34, %35
  br i1 %or.cond.i.i, label %handle_diacr.exit.i, label %36

36:                                               ; preds = %._crit_edge.i.i
  tail call fastcc void @put_utf8(ptr noundef nonnull %0, i32 noundef %7)
  br label %handle_diacr.exit.i

handle_diacr.exit.i:                              ; preds = %36, %._crit_edge.i.i, %29, %5
  %37 = phi i32 [ %4, %5 ], [ %32, %29 ], [ %4, %36 ], [ %7, %._crit_edge.i.i ]
  store i32 %37, ptr %6, align 8
  br label %k_deadunicode.exit

k_deadunicode.exit:                               ; preds = %3, %handle_diacr.exit.i
  ret void
}